; ModuleID = 'source-C-CXX/11/645.cpp'
source_filename = "source-C-CXX/11/645.cpp"
target datalayout = "e-m:e-p270:32:32-p271:32:32-p272:64:64-i64:64-f80:128-n8:16:32:64-S128"
target triple = "x86_64-pc-linux-gnu"

%"class.std::ios_base::Init" = type { i8 }
%"class.std::basic_istream" = type { i32 (...)**, i64, %"class.std::basic_ios" }
%"class.std::basic_ios" = type { %"class.std::ios_base", %"class.std::basic_ostream"*, i8, i8, %"class.std::basic_streambuf"*, %"class.std::ctype"*, %"class.std::num_put"*, %"class.std::num_get"* }
%"class.std::ios_base" = type { i32 (...)**, i64, i64, i32, i32, i32, %"struct.std::ios_base::_Callback_list"*, %"struct.std::ios_base::_Words", [8 x %"struct.std::ios_base::_Words"], i32, %"struct.std::ios_base::_Words"*, %"class.std::locale" }
%"struct.std::ios_base::_Callback_list" = type { %"struct.std::ios_base::_Callback_list"*, void (i32, %"class.std::ios_base"*, i32)*, i32, i32 }
%"struct.std::ios_base::_Words" = type { i8*, i64 }
%"class.std::locale" = type { %"class.std::locale::_Impl"* }
%"class.std::locale::_Impl" = type { i32, %"class.std::locale::facet"**, i64, %"class.std::locale::facet"**, i8** }
%"class.std::locale::facet" = type <{ i32 (...)**, i32, [4 x i8] }>
%"class.std::basic_ostream" = type { i32 (...)**, %"class.std::basic_ios" }
%"class.std::basic_streambuf" = type { i32 (...)**, i8*, i8*, i8*, i8*, i8*, i8*, %"class.std::locale" }
%"class.std::ctype" = type <{ %"class.std::locale::facet.base", [4 x i8], %struct.__locale_struct*, i8, [7 x i8], i32*, i32*, i16*, i8, [256 x i8], [256 x i8], i8, [6 x i8] }>
%"class.std::locale::facet.base" = type <{ i32 (...)**, i32 }>
%struct.__locale_struct = type { [13 x %struct.__locale_data*], i16*, i32*, i32*, [13 x i8*] }
%struct.__locale_data = type opaque
%"class.std::num_put" = type { %"class.std::locale::facet.base", [4 x i8] }
%"class.std::num_get" = type { %"class.std::locale::facet.base", [4 x i8] }

@_ZStL8__ioinit = internal global %"class.std::ios_base::Init" zeroinitializer, align 1
@__dso_handle = external hidden global i8
@_ZSt3cin = external global %"class.std::basic_istream", align 8
@_ZSt4cout = external global %"class.std::basic_ostream", align 8
@llvm.global_ctors = appending global [1 x { i32, void ()*, i8* }] [{ i32, void ()*, i8* } { i32 65535, void ()* @_GLOBAL__sub_I_645.cpp, i8* null }]

declare void @_ZNSt8ios_base4InitC1Ev(%"class.std::ios_base::Init"* nonnull align 1 dereferenceable(1)) unnamed_addr #0

; Function Attrs: nounwind
declare void @_ZNSt8ios_base4InitD1Ev(%"class.std::ios_base::Init"* nonnull align 1 dereferenceable(1)) unnamed_addr #1

; Function Attrs: nofree nounwind
declare i32 @__cxa_atexit(void (i8*)*, i8*, i8*) local_unnamed_addr #2

; Function Attrs: mustprogress norecurse sspstrong uwtable
define dso_local i32 @main() local_unnamed_addr #3 {
  %1 = alloca [20 x i32], align 16
  %2 = bitcast [20 x i32]* %1 to i8*
  call void @llvm.lifetime.start.p0i8(i64 80, i8* nonnull %2) #10
  call void @llvm.memset.p0i8.i64(i8* noundef nonnull align 16 dereferenceable(80) %2, i8 0, i64 80, i1 false)
  %3 = getelementptr inbounds [20 x i32], [20 x i32]* %1, i64 0, i64 1
  %4 = call nonnull align 8 dereferenceable(16) %"class.std::basic_istream"* @_ZNSirsERi(%"class.std::basic_istream"* nonnull align 8 dereferenceable(16) @_ZSt3cin, i32* nonnull align 4 dereferenceable(4) %3)
  %5 = bitcast %"class.std::basic_istream"* %4 to i8**
  %6 = load i8*, i8** %5, align 8, !tbaa !5
  %7 = getelementptr i8, i8* %6, i64 -24
  %8 = bitcast i8* %7 to i64*
  %9 = load i64, i64* %8, align 8
  %10 = bitcast %"class.std::basic_istream"* %4 to i8*
  %11 = add nsw i64 %9, 32
  %12 = getelementptr inbounds i8, i8* %10, i64 %11
  %13 = bitcast i8* %12 to i32*
  %14 = load i32, i32* %13, align 8, !tbaa !8
  %15 = and i32 %14, 5
  %16 = icmp ne i32 %15, 0
  %17 = load i32, i32* %3, align 4
  %18 = icmp eq i32 %17, -1
  %19 = select i1 %16, i1 true, i1 %18
  br i1 %19, label %161, label %20

20:                                               ; preds = %0, %27
  %21 = phi i64 [ %28, %27 ], [ 2, %0 ]
  %22 = getelementptr inbounds [20 x i32], [20 x i32]* %1, i64 0, i64 %21
  %23 = call nonnull align 8 dereferenceable(16) %"class.std::basic_istream"* @_ZNSirsERi(%"class.std::basic_istream"* nonnull align 8 dereferenceable(16) @_ZSt3cin, i32* nonnull align 4 dereferenceable(4) %22)
  %24 = load i32, i32* %22, align 4, !tbaa !18
  %25 = icmp eq i32 %24, 0
  %26 = add nuw i64 %21, 1
  br i1 %25, label %29, label %27

27:                                               ; preds = %20, %141
  %28 = phi i64 [ %26, %20 ], [ 2, %141 ]
  br label %20, !llvm.loop !19

29:                                               ; preds = %20
  %30 = trunc i64 %21 to i32
  %31 = icmp ugt i32 %30, 2
  br i1 %31, label %32, label %113

32:                                               ; preds = %29
  %33 = and i64 %21, 4294967295
  %34 = add i32 %30, -1
  %35 = call i32 @llvm.smax.i32(i32 %34, i32 2)
  %36 = zext i32 %35 to i64
  %37 = add nsw i64 %33, -2
  br label %43

38:                                               ; preds = %100, %93, %43
  %39 = phi i32 [ %47, %43 ], [ %95, %93 ], [ %110, %100 ]
  %40 = add nuw nsw i64 %46, 1
  %41 = icmp eq i64 %49, %36
  %42 = add i64 %44, 1
  br i1 %41, label %113, label %43, !llvm.loop !21

43:                                               ; preds = %32, %38
  %44 = phi i64 [ 0, %32 ], [ %42, %38 ]
  %45 = phi i64 [ 1, %32 ], [ %49, %38 ]
  %46 = phi i64 [ 2, %32 ], [ %40, %38 ]
  %47 = phi i32 [ 0, %32 ], [ %39, %38 ]
  %48 = sub i64 %37, %44
  %49 = add nuw nsw i64 %45, 1
  %50 = icmp ult i64 %49, %33
  br i1 %50, label %51, label %38

51:                                               ; preds = %43
  %52 = getelementptr inbounds [20 x i32], [20 x i32]* %1, i64 0, i64 %45
  %53 = load i32, i32* %52, align 4, !tbaa !18
  %54 = shl nsw i32 %53, 1
  %55 = icmp ult i64 %48, 8
  br i1 %55, label %97, label %56

56:                                               ; preds = %51
  %57 = and i64 %48, -8
  %58 = add i64 %46, %57
  %59 = insertelement <4 x i32> <i32 poison, i32 0, i32 0, i32 0>, i32 %47, i32 0
  %60 = insertelement <4 x i32> poison, i32 %53, i32 0
  %61 = shufflevector <4 x i32> %60, <4 x i32> poison, <4 x i32> zeroinitializer
  %62 = insertelement <4 x i32> poison, i32 %53, i32 0
  %63 = shufflevector <4 x i32> %62, <4 x i32> poison, <4 x i32> zeroinitializer
  %64 = insertelement <4 x i32> poison, i32 %54, i32 0
  %65 = shufflevector <4 x i32> %64, <4 x i32> poison, <4 x i32> zeroinitializer
  %66 = insertelement <4 x i32> poison, i32 %54, i32 0
  %67 = shufflevector <4 x i32> %66, <4 x i32> poison, <4 x i32> zeroinitializer
  br label %68

68:                                               ; preds = %68, %56
  %69 = phi i64 [ 0, %56 ], [ %91, %68 ]
  %70 = phi <4 x i32> [ %59, %56 ], [ %89, %68 ]
  %71 = phi <4 x i32> [ zeroinitializer, %56 ], [ %90, %68 ]
  %72 = add i64 %46, %69
  %73 = getelementptr inbounds [20 x i32], [20 x i32]* %1, i64 0, i64 %72
  %74 = bitcast i32* %73 to <4 x i32>*
  %75 = load <4 x i32>, <4 x i32>* %74, align 4, !tbaa !18
  %76 = getelementptr inbounds i32, i32* %73, i64 4
  %77 = bitcast i32* %76 to <4 x i32>*
  %78 = load <4 x i32>, <4 x i32>* %77, align 4, !tbaa !18
  %79 = shl nsw <4 x i32> %75, <i32 1, i32 1, i32 1, i32 1>
  %80 = shl nsw <4 x i32> %78, <i32 1, i32 1, i32 1, i32 1>
  %81 = icmp eq <4 x i32> %61, %79
  %82 = icmp eq <4 x i32> %63, %80
  %83 = icmp eq <4 x i32> %75, %65
  %84 = icmp eq <4 x i32> %78, %67
  %85 = select <4 x i1> %81, <4 x i1> <i1 true, i1 true, i1 true, i1 true>, <4 x i1> %83
  %86 = select <4 x i1> %82, <4 x i1> <i1 true, i1 true, i1 true, i1 true>, <4 x i1> %84
  %87 = zext <4 x i1> %85 to <4 x i32>
  %88 = zext <4 x i1> %86 to <4 x i32>
  %89 = add <4 x i32> %70, %87
  %90 = add <4 x i32> %71, %88
  %91 = add nuw i64 %69, 8
  %92 = icmp eq i64 %91, %57
  br i1 %92, label %93, label %68, !llvm.loop !22

93:                                               ; preds = %68
  %94 = add <4 x i32> %90, %89
  %95 = call i32 @llvm.vector.reduce.add.v4i32(<4 x i32> %94)
  %96 = icmp eq i64 %48, %57
  br i1 %96, label %38, label %97

97:                                               ; preds = %51, %93
  %98 = phi i64 [ %46, %51 ], [ %58, %93 ]
  %99 = phi i32 [ %47, %51 ], [ %95, %93 ]
  br label %100

100:                                              ; preds = %97, %100
  %101 = phi i64 [ %111, %100 ], [ %98, %97 ]
  %102 = phi i32 [ %110, %100 ], [ %99, %97 ]
  %103 = getelementptr inbounds [20 x i32], [20 x i32]* %1, i64 0, i64 %101
  %104 = load i32, i32* %103, align 4, !tbaa !18
  %105 = shl nsw i32 %104, 1
  %106 = icmp eq i32 %53, %105
  %107 = icmp eq i32 %104, %54
  %108 = select i1 %106, i1 true, i1 %107
  %109 = zext i1 %108 to i32
  %110 = add nsw i32 %102, %109
  %111 = add nuw nsw i64 %101, 1
  %112 = icmp eq i64 %111, %33
  br i1 %112, label %38, label %100, !llvm.loop !24

113:                                              ; preds = %38, %29
  %114 = phi i32 [ 0, %29 ], [ %39, %38 ]
  %115 = call nonnull align 8 dereferenceable(8) %"class.std::basic_ostream"* @_ZNSolsEi(%"class.std::basic_ostream"* nonnull align 8 dereferenceable(8) @_ZSt4cout, i32 %114)
  %116 = bitcast %"class.std::basic_ostream"* %115 to i8**
  %117 = load i8*, i8** %116, align 8, !tbaa !5
  %118 = getelementptr i8, i8* %117, i64 -24
  %119 = bitcast i8* %118 to i64*
  %120 = load i64, i64* %119, align 8
  %121 = bitcast %"class.std::basic_ostream"* %115 to i8*
  %122 = add nsw i64 %120, 240
  %123 = getelementptr inbounds i8, i8* %121, i64 %122
  %124 = bitcast i8* %123 to %"class.std::ctype"**
  %125 = load %"class.std::ctype"*, %"class.std::ctype"** %124, align 8, !tbaa !26
  %126 = icmp eq %"class.std::ctype"* %125, null
  br i1 %126, label %127, label %128

127:                                              ; preds = %113
  call void @_ZSt16__throw_bad_castv() #11
  unreachable

128:                                              ; preds = %113
  %129 = getelementptr inbounds %"class.std::ctype", %"class.std::ctype"* %125, i64 0, i32 8
  %130 = load i8, i8* %129, align 8, !tbaa !29
  %131 = icmp eq i8 %130, 0
  br i1 %131, label %135, label %132

132:                                              ; preds = %128
  %133 = getelementptr inbounds %"class.std::ctype", %"class.std::ctype"* %125, i64 0, i32 9, i64 10
  %134 = load i8, i8* %133, align 1, !tbaa !31
  br label %141

135:                                              ; preds = %128
  call void @_ZNKSt5ctypeIcE13_M_widen_initEv(%"class.std::ctype"* nonnull align 8 dereferenceable(570) %125)
  %136 = bitcast %"class.std::ctype"* %125 to i8 (%"class.std::ctype"*, i8)***
  %137 = load i8 (%"class.std::ctype"*, i8)**, i8 (%"class.std::ctype"*, i8)*** %136, align 8, !tbaa !5
  %138 = getelementptr inbounds i8 (%"class.std::ctype"*, i8)*, i8 (%"class.std::ctype"*, i8)** %137, i64 6
  %139 = load i8 (%"class.std::ctype"*, i8)*, i8 (%"class.std::ctype"*, i8)** %138, align 8
  %140 = call signext i8 %139(%"class.std::ctype"* nonnull align 8 dereferenceable(570) %125, i8 signext 10)
  br label %141

141:                                              ; preds = %132, %135
  %142 = phi i8 [ %134, %132 ], [ %140, %135 ]
  %143 = call nonnull align 8 dereferenceable(8) %"class.std::basic_ostream"* @_ZNSo3putEc(%"class.std::basic_ostream"* nonnull align 8 dereferenceable(8) %115, i8 signext %142)
  %144 = call nonnull align 8 dereferenceable(8) %"class.std::basic_ostream"* @_ZNSo5flushEv(%"class.std::basic_ostream"* nonnull align 8 dereferenceable(8) %143)
  %145 = call nonnull align 8 dereferenceable(16) %"class.std::basic_istream"* @_ZNSirsERi(%"class.std::basic_istream"* nonnull align 8 dereferenceable(16) @_ZSt3cin, i32* nonnull align 4 dereferenceable(4) %3)
  %146 = bitcast %"class.std::basic_istream"* %145 to i8**
  %147 = load i8*, i8** %146, align 8, !tbaa !5
  %148 = getelementptr i8, i8* %147, i64 -24
  %149 = bitcast i8* %148 to i64*
  %150 = load i64, i64* %149, align 8
  %151 = bitcast %"class.std::basic_istream"* %145 to i8*
  %152 = add nsw i64 %150, 32
  %153 = getelementptr inbounds i8, i8* %151, i64 %152
  %154 = bitcast i8* %153 to i32*
  %155 = load i32, i32* %154, align 8, !tbaa !8
  %156 = and i32 %155, 5
  %157 = icmp ne i32 %156, 0
  %158 = load i32, i32* %3, align 4
  %159 = icmp eq i32 %158, -1
  %160 = select i1 %157, i1 true, i1 %159
  br i1 %160, label %161, label %27

161:                                              ; preds = %141, %0
  call void @llvm.lifetime.end.p0i8(i64 80, i8* nonnull %2) #10
  ret i32 0
}

; Function Attrs: argmemonly mustprogress nofree nosync nounwind willreturn
declare void @llvm.lifetime.start.p0i8(i64 immarg, i8* nocapture) #4

; Function Attrs: argmemonly mustprogress nofree nounwind willreturn writeonly
declare void @llvm.memset.p0i8.i64(i8* nocapture writeonly, i8, i64, i1 immarg) #5

declare nonnull align 8 dereferenceable(16) %"class.std::basic_istream"* @_ZNSirsERi(%"class.std::basic_istream"* nonnull align 8 dereferenceable(16), i32* nonnull align 4 dereferenceable(4)) local_unnamed_addr #0

declare nonnull align 8 dereferenceable(8) %"class.std::basic_ostream"* @_ZNSolsEi(%"class.std::basic_ostream"* nonnull align 8 dereferenceable(8), i32) local_unnamed_addr #0

; Function Attrs: argmemonly mustprogress nofree nosync nounwind willreturn
declare void @llvm.lifetime.end.p0i8(i64 immarg, i8* nocapture) #4

declare nonnull align 8 dereferenceable(8) %"class.std::basic_ostream"* @_ZNSo3putEc(%"class.std::basic_ostream"* nonnull align 8 dereferenceable(8), i8 signext) local_unnamed_addr #0

declare nonnull align 8 dereferenceable(8) %"class.std::basic_ostream"* @_ZNSo5flushEv(%"class.std::basic_ostream"* nonnull align 8 dereferenceable(8)) local_unnamed_addr #0

; Function Attrs: noreturn
declare void @_ZSt16__throw_bad_castv() local_unnamed_addr #6

declare void @_ZNKSt5ctypeIcE13_M_widen_initEv(%"class.std::ctype"* nonnull align 8 dereferenceable(570)) local_unnamed_addr #0

; Function Attrs: sspstrong uwtable
define internal void @_GLOBAL__sub_I_645.cpp() #7 section ".text.startup" {
  tail call void @_ZNSt8ios_base4InitC1Ev(%"class.std::ios_base::Init"* nonnull align 1 dereferenceable(1) @_ZStL8__ioinit)
  %1 = tail call i32 @__cxa_atexit(void (i8*)* bitcast (void (%"class.std::ios_base::Init"*)* @_ZNSt8ios_base4InitD1Ev to void (i8*)*), i8* getelementptr inbounds (%"class.std::ios_base::Init", %"class.std::ios_base::Init"* @_ZStL8__ioinit, i64 0, i32 0), i8* nonnull @__dso_handle) #10
  ret void
}

; Function Attrs: nofree nosync nounwind readnone speculatable willreturn
declare i32 @llvm.smax.i32(i32, i32) #8

; Function Attrs: nofree nosync nounwind readnone willreturn
declare i32 @llvm.vector.reduce.add.v4i32(<4 x i32>) #9


!llvm.module.flags = !{!0, !1, !2, !3}
!llvm.ident = !{!4}

!0 = !{i32 1, !"wchar_size", i32 4}
!1 = !{i32 7, !"PIC Level", i32 2}
!2 = !{i32 7, !"PIE Level", i32 2}
!3 = !{i32 7, !"uwtable", i32 1}
!4 = !{!"clang version 13.0.0"}
!5 = !{!6, !6, i64 0}
!6 = !{!"vtable pointer", !7, i64 0}
!7 = !{!"Simple C++ TBAA"}
!8 = !{!9, !13, i64 32}
!9 = !{!"_ZTSSt8ios_base", !10, i64 8, !10, i64 16, !12, i64 24, !13, i64 28, !13, i64 32, !14, i64 40, !15, i64 48, !11, i64 64, !16, i64 192, !14, i64 200, !17, i64 208}
!10 = !{!"long", !11, i64 0}
!11 = !{!"omnipotent char", !7, i64 0}
!12 = !{!"_ZTSSt13_Ios_Fmtflags", !11, i64 0}
!13 = !{!"_ZTSSt12_Ios_Iostate", !11, i64 0}
!14 = !{!"any pointer", !11, i64 0}
!15 = !{!"_ZTSNSt8ios_base6_WordsE", !14, i64 0, !10, i64 8}
!16 = !{!"int", !11, i64 0}
!17 = !{!"_ZTSSt6locale", !14, i64 0}
!18 = !{!16, !16, i64 0}
!19 = distinct !{!19, !20}
!20 = !{!"llvm.loop.mustprogress"}
!21 = distinct !{!21, !20}
!22 = distinct !{!22, !20, !23}
!23 = !{!"llvm.loop.isvectorized", i32 1}
!24 = distinct !{!24, !20, !25, !23}
!25 = !{!"llvm.loop.unroll.runtime.disable"}
!26 = !{!27, !14, i64 240}
!27 = !{!"_ZTSSt9basic_iosIcSt11char_traitsIcEE", !14, i64 216, !11, i64 224, !28, i64 225, !14, i64 232, !14, i64 240, !14, i64 248, !14, i64 256}
!28 = !{!"bool", !11, i64 0}
!29 = !{!30, !11, i64 56}
!30 = !{!"_ZTSSt5ctypeIcE", !14, i64 16, !28, i64 24, !14, i64 32, !14, i64 40, !14, i64 48, !11, i64 56, !11, i64 57, !11, i64 313, !11, i64 569}
!31 = !{!11, !11, i64 0}
